
gcc-build/exec:     file format elf64-x86-64


Disassembly of section .init:

0000000000001000 <_init>:
    1000:	f3 0f 1e fa          	endbr64 
    1004:	48 83 ec 08          	sub    rsp,0x8
    1008:	48 8b 05 d9 2f 00 00 	mov    rax,QWORD PTR [rip+0x2fd9]        # 3fe8 <__gmon_start__>
    100f:	48 85 c0             	test   rax,rax
    1012:	74 02                	je     1016 <_init+0x16>
    1014:	ff d0                	call   rax
    1016:	48 83 c4 08          	add    rsp,0x8
    101a:	c3                   	ret    

Disassembly of section .plt:

0000000000001020 <.plt>:
    1020:	ff 35 a2 2f 00 00    	push   QWORD PTR [rip+0x2fa2]        # 3fc8 <_GLOBAL_OFFSET_TABLE_+0x8>
    1026:	f2 ff 25 a3 2f 00 00 	bnd jmp QWORD PTR [rip+0x2fa3]        # 3fd0 <_GLOBAL_OFFSET_TABLE_+0x10>
    102d:	0f 1f 00             	nop    DWORD PTR [rax]

Disassembly of section .plt.got:

0000000000001030 <__cxa_finalize@plt>:
    1030:	f3 0f 1e fa          	endbr64 
    1034:	f2 ff 25 bd 2f 00 00 	bnd jmp QWORD PTR [rip+0x2fbd]        # 3ff8 <__cxa_finalize@GLIBC_2.2.5>
    103b:	0f 1f 44 00 00       	nop    DWORD PTR [rax+rax*1+0x0]

Disassembly of section .text:

0000000000001040 <main>:
    1040:	f3 0f 1e fa          	endbr64 
    1044:	53                   	push   rbx
    1045:	bb 10 27 00 00       	mov    ebx,0x2710
    104a:	66 0f 1f 44 00 00    	nop    WORD PTR [rax+rax*1+0x0]
    1050:	6a 01                	push   0x1
    1052:	41 b9 01 00 00 00    	mov    r9d,0x1
    1058:	6a 01                	push   0x1
    105a:	41 b8 01 00 00 00    	mov    r8d,0x1
    1060:	6a 01                	push   0x1
    1062:	b9 01 00 00 00       	mov    ecx,0x1
    1067:	6a 01                	push   0x1
    1069:	ba 01 00 00 00       	mov    edx,0x1
    106e:	6a 01                	push   0x1
    1070:	be 01 00 00 00       	mov    esi,0x1
    1075:	6a 01                	push   0x1
    1077:	bf 01 00 00 00       	mov    edi,0x1
    107c:	e8 ff 00 00 00       	call   1180 <effect>
    1081:	48 83 c4 30          	add    rsp,0x30
    1085:	48 ff cb             	dec    rbx
    1088:	75 c6                	jne    1050 <main+0x10>
    108a:	31 c0                	xor    eax,eax
    108c:	5b                   	pop    rbx
    108d:	c3                   	ret    
    108e:	66 90                	xchg   ax,ax

0000000000001090 <_start>:
    1090:	f3 0f 1e fa          	endbr64 
    1094:	31 ed                	xor    ebp,ebp
    1096:	49 89 d1             	mov    r9,rdx
    1099:	5e                   	pop    rsi
    109a:	48 89 e2             	mov    rdx,rsp
    109d:	48 83 e4 f0          	and    rsp,0xfffffffffffffff0
    10a1:	50                   	push   rax
    10a2:	54                   	push   rsp
    10a3:	4c 8d 05 56 01 00 00 	lea    r8,[rip+0x156]        # 1200 <__libc_csu_fini>
    10aa:	48 8d 0d df 00 00 00 	lea    rcx,[rip+0xdf]        # 1190 <__libc_csu_init>
    10b1:	48 8d 3d 88 ff ff ff 	lea    rdi,[rip+0xffffffffffffff88]        # 1040 <main>
    10b8:	ff 15 22 2f 00 00    	call   QWORD PTR [rip+0x2f22]        # 3fe0 <__libc_start_main@GLIBC_2.2.5>
    10be:	f4                   	hlt    
    10bf:	90                   	nop

00000000000010c0 <deregister_tm_clones>:
    10c0:	48 8d 3d 49 2f 00 00 	lea    rdi,[rip+0x2f49]        # 4010 <__TMC_END__>
    10c7:	48 8d 05 42 2f 00 00 	lea    rax,[rip+0x2f42]        # 4010 <__TMC_END__>
    10ce:	48 39 f8             	cmp    rax,rdi
    10d1:	74 15                	je     10e8 <deregister_tm_clones+0x28>
    10d3:	48 8b 05 fe 2e 00 00 	mov    rax,QWORD PTR [rip+0x2efe]        # 3fd8 <_ITM_deregisterTMCloneTable>
    10da:	48 85 c0             	test   rax,rax
    10dd:	74 09                	je     10e8 <deregister_tm_clones+0x28>
    10df:	ff e0                	jmp    rax
    10e1:	0f 1f 80 00 00 00 00 	nop    DWORD PTR [rax+0x0]
    10e8:	c3                   	ret    
    10e9:	0f 1f 80 00 00 00 00 	nop    DWORD PTR [rax+0x0]

00000000000010f0 <register_tm_clones>:
    10f0:	48 8d 3d 19 2f 00 00 	lea    rdi,[rip+0x2f19]        # 4010 <__TMC_END__>
    10f7:	48 8d 35 12 2f 00 00 	lea    rsi,[rip+0x2f12]        # 4010 <__TMC_END__>
    10fe:	48 29 fe             	sub    rsi,rdi
    1101:	48 89 f0             	mov    rax,rsi
    1104:	48 c1 ee 3f          	shr    rsi,0x3f
    1108:	48 c1 f8 03          	sar    rax,0x3
    110c:	48 01 c6             	add    rsi,rax
    110f:	48 d1 fe             	sar    rsi,1
    1112:	74 14                	je     1128 <register_tm_clones+0x38>
    1114:	48 8b 05 d5 2e 00 00 	mov    rax,QWORD PTR [rip+0x2ed5]        # 3ff0 <_ITM_registerTMCloneTable>
    111b:	48 85 c0             	test   rax,rax
    111e:	74 08                	je     1128 <register_tm_clones+0x38>
    1120:	ff e0                	jmp    rax
    1122:	66 0f 1f 44 00 00    	nop    WORD PTR [rax+rax*1+0x0]
    1128:	c3                   	ret    
    1129:	0f 1f 80 00 00 00 00 	nop    DWORD PTR [rax+0x0]

0000000000001130 <__do_global_dtors_aux>:
    1130:	f3 0f 1e fa          	endbr64 
    1134:	80 3d d5 2e 00 00 00 	cmp    BYTE PTR [rip+0x2ed5],0x0        # 4010 <__TMC_END__>
    113b:	75 2b                	jne    1168 <__do_global_dtors_aux+0x38>
    113d:	55                   	push   rbp
    113e:	48 83 3d b2 2e 00 00 	cmp    QWORD PTR [rip+0x2eb2],0x0        # 3ff8 <__cxa_finalize@GLIBC_2.2.5>
    1145:	00 
    1146:	48 89 e5             	mov    rbp,rsp
    1149:	74 0c                	je     1157 <__do_global_dtors_aux+0x27>
    114b:	48 8b 3d b6 2e 00 00 	mov    rdi,QWORD PTR [rip+0x2eb6]        # 4008 <__dso_handle>
    1152:	e8 d9 fe ff ff       	call   1030 <__cxa_finalize@plt>
    1157:	e8 64 ff ff ff       	call   10c0 <deregister_tm_clones>
    115c:	c6 05 ad 2e 00 00 01 	mov    BYTE PTR [rip+0x2ead],0x1        # 4010 <__TMC_END__>
    1163:	5d                   	pop    rbp
    1164:	c3                   	ret    
    1165:	0f 1f 00             	nop    DWORD PTR [rax]
    1168:	c3                   	ret    
    1169:	0f 1f 80 00 00 00 00 	nop    DWORD PTR [rax+0x0]

0000000000001170 <frame_dummy>:
    1170:	f3 0f 1e fa          	endbr64 
    1174:	e9 77 ff ff ff       	jmp    10f0 <register_tm_clones>
    1179:	0f 1f 80 00 00 00 00 	nop    DWORD PTR [rax+0x0]

0000000000001180 <effect>:
    1180:	f3 0f 1e fa          	endbr64 
    1184:	31 c0                	xor    eax,eax
    1186:	c3                   	ret    
    1187:	66 0f 1f 84 00 00 00 	nop    WORD PTR [rax+rax*1+0x0]
    118e:	00 00 

0000000000001190 <__libc_csu_init>:
    1190:	f3 0f 1e fa          	endbr64 
    1194:	41 57                	push   r15
    1196:	4c 8d 3d 53 2c 00 00 	lea    r15,[rip+0x2c53]        # 3df0 <__frame_dummy_init_array_entry>
    119d:	41 56                	push   r14
    119f:	49 89 d6             	mov    r14,rdx
    11a2:	41 55                	push   r13
    11a4:	49 89 f5             	mov    r13,rsi
    11a7:	41 54                	push   r12
    11a9:	41 89 fc             	mov    r12d,edi
    11ac:	55                   	push   rbp
    11ad:	48 8d 2d 44 2c 00 00 	lea    rbp,[rip+0x2c44]        # 3df8 <__do_global_dtors_aux_fini_array_entry>
    11b4:	53                   	push   rbx
    11b5:	4c 29 fd             	sub    rbp,r15
    11b8:	48 83 ec 08          	sub    rsp,0x8
    11bc:	e8 3f fe ff ff       	call   1000 <_init>
    11c1:	48 c1 fd 03          	sar    rbp,0x3
    11c5:	74 1f                	je     11e6 <__libc_csu_init+0x56>
    11c7:	31 db                	xor    ebx,ebx
    11c9:	0f 1f 80 00 00 00 00 	nop    DWORD PTR [rax+0x0]
    11d0:	4c 89 f2             	mov    rdx,r14
    11d3:	4c 89 ee             	mov    rsi,r13
    11d6:	44 89 e7             	mov    edi,r12d
    11d9:	41 ff 14 df          	call   QWORD PTR [r15+rbx*8]
    11dd:	48 83 c3 01          	add    rbx,0x1
    11e1:	48 39 dd             	cmp    rbp,rbx
    11e4:	75 ea                	jne    11d0 <__libc_csu_init+0x40>
    11e6:	48 83 c4 08          	add    rsp,0x8
    11ea:	5b                   	pop    rbx
    11eb:	5d                   	pop    rbp
    11ec:	41 5c                	pop    r12
    11ee:	41 5d                	pop    r13
    11f0:	41 5e                	pop    r14
    11f2:	41 5f                	pop    r15
    11f4:	c3                   	ret    
    11f5:	66 66 2e 0f 1f 84 00 	data16 cs nop WORD PTR [rax+rax*1+0x0]
    11fc:	00 00 00 00 

0000000000001200 <__libc_csu_fini>:
    1200:	f3 0f 1e fa          	endbr64 
    1204:	c3                   	ret    

Disassembly of section .fini:

0000000000001208 <_fini>:
    1208:	f3 0f 1e fa          	endbr64 
    120c:	48 83 ec 08          	sub    rsp,0x8
    1210:	48 83 c4 08          	add    rsp,0x8
    1214:	c3                   	ret    
