
llvm-build/exec:     file format elf64-x86-64


Disassembly of section .init:

0000000000401000 <_init>:
  401000:	f3 0f 1e fa          	endbr64 
  401004:	48 83 ec 08          	sub    rsp,0x8
  401008:	48 8b 05 e9 2f 00 00 	mov    rax,QWORD PTR [rip+0x2fe9]        # 403ff8 <__gmon_start__>
  40100f:	48 85 c0             	test   rax,rax
  401012:	74 02                	je     401016 <_init+0x16>
  401014:	ff d0                	call   rax
  401016:	48 83 c4 08          	add    rsp,0x8
  40101a:	c3                   	ret    

Disassembly of section .text:

0000000000401020 <_start>:
  401020:	f3 0f 1e fa          	endbr64 
  401024:	31 ed                	xor    ebp,ebp
  401026:	49 89 d1             	mov    r9,rdx
  401029:	5e                   	pop    rsi
  40102a:	48 89 e2             	mov    rdx,rsp
  40102d:	48 83 e4 f0          	and    rsp,0xfffffffffffffff0
  401031:	50                   	push   rax
  401032:	54                   	push   rsp
  401033:	49 c7 c0 10 12 40 00 	mov    r8,0x401210
  40103a:	48 c7 c1 a0 11 40 00 	mov    rcx,0x4011a0
  401041:	48 c7 c7 10 11 40 00 	mov    rdi,0x401110
  401048:	ff 15 a2 2f 00 00    	call   QWORD PTR [rip+0x2fa2]        # 403ff0 <__libc_start_main@GLIBC_2.2.5>
  40104e:	f4                   	hlt    
  40104f:	90                   	nop

0000000000401050 <_dl_relocate_static_pie>:
  401050:	f3 0f 1e fa          	endbr64 
  401054:	c3                   	ret    
  401055:	66 2e 0f 1f 84 00 00 	cs nop WORD PTR [rax+rax*1+0x0]
  40105c:	00 00 00 
  40105f:	90                   	nop

0000000000401060 <deregister_tm_clones>:
  401060:	b8 28 40 40 00       	mov    eax,0x404028
  401065:	48 3d 28 40 40 00    	cmp    rax,0x404028
  40106b:	74 13                	je     401080 <deregister_tm_clones+0x20>
  40106d:	b8 00 00 00 00       	mov    eax,0x0
  401072:	48 85 c0             	test   rax,rax
  401075:	74 09                	je     401080 <deregister_tm_clones+0x20>
  401077:	bf 28 40 40 00       	mov    edi,0x404028
  40107c:	ff e0                	jmp    rax
  40107e:	66 90                	xchg   ax,ax
  401080:	c3                   	ret    
  401081:	66 66 2e 0f 1f 84 00 	data16 cs nop WORD PTR [rax+rax*1+0x0]
  401088:	00 00 00 00 
  40108c:	0f 1f 40 00          	nop    DWORD PTR [rax+0x0]

0000000000401090 <register_tm_clones>:
  401090:	be 28 40 40 00       	mov    esi,0x404028
  401095:	48 81 ee 28 40 40 00 	sub    rsi,0x404028
  40109c:	48 89 f0             	mov    rax,rsi
  40109f:	48 c1 ee 3f          	shr    rsi,0x3f
  4010a3:	48 c1 f8 03          	sar    rax,0x3
  4010a7:	48 01 c6             	add    rsi,rax
  4010aa:	48 d1 fe             	sar    rsi,1
  4010ad:	74 11                	je     4010c0 <register_tm_clones+0x30>
  4010af:	b8 00 00 00 00       	mov    eax,0x0
  4010b4:	48 85 c0             	test   rax,rax
  4010b7:	74 07                	je     4010c0 <register_tm_clones+0x30>
  4010b9:	bf 28 40 40 00       	mov    edi,0x404028
  4010be:	ff e0                	jmp    rax
  4010c0:	c3                   	ret    
  4010c1:	66 66 2e 0f 1f 84 00 	data16 cs nop WORD PTR [rax+rax*1+0x0]
  4010c8:	00 00 00 00 
  4010cc:	0f 1f 40 00          	nop    DWORD PTR [rax+0x0]

00000000004010d0 <__do_global_dtors_aux>:
  4010d0:	f3 0f 1e fa          	endbr64 
  4010d4:	80 3d 4d 2f 00 00 00 	cmp    BYTE PTR [rip+0x2f4d],0x0        # 404028 <__TMC_END__>
  4010db:	75 13                	jne    4010f0 <__do_global_dtors_aux+0x20>
  4010dd:	55                   	push   rbp
  4010de:	48 89 e5             	mov    rbp,rsp
  4010e1:	e8 7a ff ff ff       	call   401060 <deregister_tm_clones>
  4010e6:	c6 05 3b 2f 00 00 01 	mov    BYTE PTR [rip+0x2f3b],0x1        # 404028 <__TMC_END__>
  4010ed:	5d                   	pop    rbp
  4010ee:	c3                   	ret    
  4010ef:	90                   	nop
  4010f0:	c3                   	ret    
  4010f1:	66 66 2e 0f 1f 84 00 	data16 cs nop WORD PTR [rax+rax*1+0x0]
  4010f8:	00 00 00 00 
  4010fc:	0f 1f 40 00          	nop    DWORD PTR [rax+0x0]

0000000000401100 <frame_dummy>:
  401100:	f3 0f 1e fa          	endbr64 
  401104:	eb 8a                	jmp    401090 <register_tm_clones>
  401106:	66 2e 0f 1f 84 00 00 	cs nop WORD PTR [rax+rax*1+0x0]
  40110d:	00 00 00 

0000000000401110 <main>:
  401110:	53                   	push   rbx
  401111:	48 83 ec 70          	sub    rsp,0x70
  401115:	c4 e2 7d 19 05 ea 0e 	vbroadcastsd ymm0,QWORD PTR [rip+0xeea]        # 402008 <_IO_stdin_used+0x8>
  40111c:	00 00 
  40111e:	bb 10 27 00 00       	mov    ebx,0x2710
  401123:	c5 fc 11 44 24 40    	vmovups YMMWORD PTR [rsp+0x40],ymm0
  401129:	0f 1f 80 00 00 00 00 	nop    DWORD PTR [rax+0x0]
  401130:	c5 fc 10 44 24 40    	vmovups ymm0,YMMWORD PTR [rsp+0x40]
  401136:	bf 01 00 00 00       	mov    edi,0x1
  40113b:	be 01 00 00 00       	mov    esi,0x1
  401140:	ba 01 00 00 00       	mov    edx,0x1
  401145:	b9 01 00 00 00       	mov    ecx,0x1
  40114a:	41 b8 01 00 00 00    	mov    r8d,0x1
  401150:	41 b9 01 00 00 00    	mov    r9d,0x1
  401156:	48 c7 44 24 28 01 00 	mov    QWORD PTR [rsp+0x28],0x1
  40115d:	00 00 
  40115f:	48 c7 44 24 20 01 00 	mov    QWORD PTR [rsp+0x20],0x1
  401166:	00 00 
  401168:	c5 fc 11 04 24       	vmovups YMMWORD PTR [rsp],ymm0
  40116d:	c5 f8 77             	vzeroupper 
  401170:	e8 1b 00 00 00       	call   401190 <effect>
  401175:	48 ff cb             	dec    rbx
  401178:	75 b6                	jne    401130 <main+0x20>
  40117a:	31 c0                	xor    eax,eax
  40117c:	48 83 c4 70          	add    rsp,0x70
  401180:	5b                   	pop    rbx
  401181:	c3                   	ret    
  401182:	66 2e 0f 1f 84 00 00 	cs nop WORD PTR [rax+rax*1+0x0]
  401189:	00 00 00 
  40118c:	0f 1f 40 00          	nop    DWORD PTR [rax+0x0]

0000000000401190 <effect>:
  401190:	31 c0                	xor    eax,eax
  401192:	c3                   	ret    
  401193:	66 2e 0f 1f 84 00 00 	cs nop WORD PTR [rax+rax*1+0x0]
  40119a:	00 00 00 
  40119d:	0f 1f 00             	nop    DWORD PTR [rax]

00000000004011a0 <__libc_csu_init>:
  4011a0:	f3 0f 1e fa          	endbr64 
  4011a4:	41 57                	push   r15
  4011a6:	4c 8d 3d 73 2c 00 00 	lea    r15,[rip+0x2c73]        # 403e20 <__frame_dummy_init_array_entry>
  4011ad:	41 56                	push   r14
  4011af:	49 89 d6             	mov    r14,rdx
  4011b2:	41 55                	push   r13
  4011b4:	49 89 f5             	mov    r13,rsi
  4011b7:	41 54                	push   r12
  4011b9:	41 89 fc             	mov    r12d,edi
  4011bc:	55                   	push   rbp
  4011bd:	48 8d 2d 64 2c 00 00 	lea    rbp,[rip+0x2c64]        # 403e28 <__do_global_dtors_aux_fini_array_entry>
  4011c4:	53                   	push   rbx
  4011c5:	4c 29 fd             	sub    rbp,r15
  4011c8:	48 83 ec 08          	sub    rsp,0x8
  4011cc:	e8 2f fe ff ff       	call   401000 <_init>
  4011d1:	48 c1 fd 03          	sar    rbp,0x3
  4011d5:	74 1f                	je     4011f6 <__libc_csu_init+0x56>
  4011d7:	31 db                	xor    ebx,ebx
  4011d9:	0f 1f 80 00 00 00 00 	nop    DWORD PTR [rax+0x0]
  4011e0:	4c 89 f2             	mov    rdx,r14
  4011e3:	4c 89 ee             	mov    rsi,r13
  4011e6:	44 89 e7             	mov    edi,r12d
  4011e9:	41 ff 14 df          	call   QWORD PTR [r15+rbx*8]
  4011ed:	48 83 c3 01          	add    rbx,0x1
  4011f1:	48 39 dd             	cmp    rbp,rbx
  4011f4:	75 ea                	jne    4011e0 <__libc_csu_init+0x40>
  4011f6:	48 83 c4 08          	add    rsp,0x8
  4011fa:	5b                   	pop    rbx
  4011fb:	5d                   	pop    rbp
  4011fc:	41 5c                	pop    r12
  4011fe:	41 5d                	pop    r13
  401200:	41 5e                	pop    r14
  401202:	41 5f                	pop    r15
  401204:	c3                   	ret    
  401205:	66 66 2e 0f 1f 84 00 	data16 cs nop WORD PTR [rax+rax*1+0x0]
  40120c:	00 00 00 00 

0000000000401210 <__libc_csu_fini>:
  401210:	f3 0f 1e fa          	endbr64 
  401214:	c3                   	ret    

Disassembly of section .fini:

0000000000401218 <_fini>:
  401218:	f3 0f 1e fa          	endbr64 
  40121c:	48 83 ec 08          	sub    rsp,0x8
  401220:	48 83 c4 08          	add    rsp,0x8
  401224:	c3                   	ret    
